target datalayout = "e-m:e-p270:32:32-p271:32:32-p272:64:64-i64:64-i128:128-f80:128-n8:16:32:64-S128"
target triple = "x86_64-pc-linux-gnu"

; Function Attrs: mustprogress nounwind uwtable
define dso_local void @_ZN15Sample_SoloMeshD2Ev(ptr noundef nonnull align 8 dereferenceable(356) %0) unnamed_addr #5 align 2 personality ptr @__gxx_personality_v0 {
  %2 = alloca ptr, align 8
  store ptr %0, ptr %2, align 8
  %3 = load ptr, ptr %2, align 8
  store ptr getelementptr inbounds ({ [23 x ptr] }, ptr @_ZTV15Sample_SoloMesh, i32 0, i32 0, i32 2), ptr %3, align 8
  invoke void @_ZN15Sample_SoloMesh7cleanupEv(ptr noundef nonnull align 8 dereferenceable(356) %3)
          to label %4 unwind label %5

4:                                                ; preds = %1
  call void @_ZN6SampleD2Ev(ptr noundef nonnull align 8 dereferenceable(200) %3) #11
  ret void

5:                                                ; preds = %1
  %6 = landingpad { ptr, i32 }
          catch ptr null
  %7 = extractvalue { ptr, i32 } %6, 0
  call void @__clang_call_terminate(ptr %7) #12
  unreachable
}