; Function Attrs: mustprogress nounwind uwtable
define dso_local void @_ZN15Sample_SoloMeshD2Ev(ptr noundef nonnull align 8 dereferenceable(356) %0) unnamed_addr #5 align 2 personality ptr @__gxx_personality_v0 {
  store ptr getelementptr inbounds ({ [23 x ptr] }, ptr @_ZTV15Sample_SoloMesh, i64 0, i32 0, i64 2), ptr %0, align 8
  invoke void @_ZN15Sample_SoloMesh7cleanupEv(ptr noundef nonnull align 8 dereferenceable(356) %0)
          to label %2 unwind label %3

2:                                                ; preds = %1
  tail call void @_ZN6SampleD2Ev(ptr noundef nonnull align 8 dereferenceable(200) %0) #12
  ret void

3:                                                ; preds = %1
  %4 = landingpad { ptr, i32 }
          catch ptr null
  %5 = extractvalue { ptr, i32 } %4, 0
  tail call void @__clang_call_terminate(ptr %5) #13
  unreachable
}